; Function Attrs: nounwind uwtable
define ptr @l___private_Lean_Elab_Declaration_0__Lean_Elab_Command_setDeclIdName(ptr noundef %0, ptr noundef %1) local_unnamed_addr #0 {
  %3 = tail call ptr @l_Lean_Elab_expandDeclIdCore(ptr noundef %0) #6
  %4 = getelementptr inbounds nuw i8, ptr %3, i64 8
  %5 = load ptr, ptr %4, align 8, !tbaa !9
  %6 = ptrtoint ptr %5 to i64
  %7 = and i64 %6, 1
  %.not = icmp eq i64 %7, 0
  br i1 %.not, label %8, label %lean_inc.exit

8:                                                ; preds = %2
  %.val.i = load i32, ptr %5, align 4, !tbaa !4
  %9 = icmp sgt i32 %.val.i, 0
  br i1 %9, label %10, label %12, !prof !11

10:                                               ; preds = %8
  %11 = add nuw i32 %.val.i, 1
  store i32 %11, ptr %5, align 4, !tbaa !4
  br label %lean_inc.exit

12:                                               ; preds = %8
  %.not.i36 = icmp eq i32 %.val.i, 0
  br i1 %.not.i36, label %lean_inc.exit, label %13

13:                                               ; preds = %12
  tail call void @lean_inc_ref_cold(ptr noundef nonnull %5) #6
  br label %lean_inc.exit

lean_inc.exit:                                    ; preds = %13, %12, %10, %2
  %14 = ptrtoint ptr %3 to i64
  %15 = and i64 %14, 1
  %.not37 = icmp eq i64 %15, 0
  br i1 %.not37, label %16, label %lean_dec.exit27

16:                                               ; preds = %lean_inc.exit
  %17 = load i32, ptr %3, align 4, !tbaa !4
  %18 = icmp sgt i32 %17, 1
  br i1 %18, label %19, label %21, !prof !11

19:                                               ; preds = %16
  %20 = add nsw i32 %17, -1
  store i32 %20, ptr %3, align 4, !tbaa !4
  br label %lean_dec.exit27

21:                                               ; preds = %16
  %.not.i = icmp eq i32 %17, 0
  br i1 %.not.i, label %lean_dec.exit27, label %22

22:                                               ; preds = %21
  tail call void @lean_dec_ref_cold(ptr noundef nonnull %3) #6
  br label %lean_dec.exit27

lean_dec.exit27:                                  ; preds = %22, %21, %19, %lean_inc.exit
  %23 = load ptr, ptr @l___private_Lean_Elab_Declaration_0__Lean_Elab_Command_setDeclIdName___closed__1, align 8, !tbaa !9
  %24 = tail call zeroext i8 @l_Lean_Name_isPrefixOf(ptr noundef %23, ptr noundef %5) #6
  br i1 %.not, label %25, label %lean_dec.exit26

25:                                               ; preds = %lean_dec.exit27
  %26 = load i32, ptr %5, align 4, !tbaa !4
  %27 = icmp sgt i32 %26, 1
  br i1 %27, label %28, label %30, !prof !11

28:                                               ; preds = %25
  %29 = add nsw i32 %26, -1
  store i32 %29, ptr %5, align 4, !tbaa !4
  br label %lean_dec.exit26

30:                                               ; preds = %25
  %.not.i28 = icmp eq i32 %26, 0
  br i1 %.not.i28, label %lean_dec.exit26, label %31

31:                                               ; preds = %30
  tail call void @lean_dec_ref_cold(ptr noundef nonnull %5) #6
  br label %lean_dec.exit26

lean_dec.exit26:                                  ; preds = %31, %30, %28, %lean_dec.exit27
  %32 = icmp eq i8 %24, 0
  br i1 %32, label %33, label %51

33:                                               ; preds = %lean_dec.exit26
  %34 = tail call ptr @l_Lean_Syntax_getHeadInfo(ptr noundef %0) #6
  %35 = tail call ptr @lean_mk_syntax_ident(ptr noundef %1) #6
  %36 = tail call ptr @l_Lean_Syntax_setInfo(ptr noundef %34, ptr noundef %35) #6
  %37 = tail call zeroext i8 @l_Lean_Syntax_isIdent(ptr noundef %0) #6
  %38 = icmp eq i8 %37, 0
  br i1 %38, label %39, label %41

39:                                               ; preds = %33
  %40 = tail call ptr @l_Lean_Syntax_setArg(ptr noundef %0, ptr noundef nonnull inttoptr (i64 1 to ptr), ptr noundef %36) #6
  br label %lean_dec.exit25

41:                                               ; preds = %33
  %42 = ptrtoint ptr %0 to i64
  %43 = and i64 %42, 1
  %.not40 = icmp eq i64 %43, 0
  br i1 %.not40, label %44, label %lean_dec.exit25

44:                                               ; preds = %41
  %45 = load i32, ptr %0, align 4, !tbaa !4
  %46 = icmp sgt i32 %45, 1
  br i1 %46, label %47, label %49, !prof !11

47:                                               ; preds = %44
  %48 = add nsw i32 %45, -1
  store i32 %48, ptr %0, align 4, !tbaa !4
  br label %lean_dec.exit25

49:                                               ; preds = %44
  %.not.i30 = icmp eq i32 %45, 0
  br i1 %.not.i30, label %lean_dec.exit25, label %50

50:                                               ; preds = %49
  tail call void @lean_dec_ref_cold(ptr noundef nonnull %0) #6
  br label %lean_dec.exit25

51:                                               ; preds = %lean_dec.exit26
  %52 = ptrtoint ptr %1 to i64
  %53 = and i64 %52, 1
  %.not38 = icmp eq i64 %53, 0
  br i1 %.not38, label %54, label %lean_dec.exit24

54:                                               ; preds = %51
  %55 = load i32, ptr %1, align 4, !tbaa !4
  %56 = icmp sgt i32 %55, 1
  br i1 %56, label %57, label %59, !prof !11

57:                                               ; preds = %54
  %58 = add nsw i32 %55, -1
  store i32 %58, ptr %1, align 4, !tbaa !4
  br label %lean_dec.exit24

59:                                               ; preds = %54
  %.not.i32 = icmp eq i32 %55, 0
  br i1 %.not.i32, label %lean_dec.exit24, label %60

60:                                               ; preds = %59
  tail call void @lean_dec_ref_cold(ptr noundef nonnull %1) #6
  br label %lean_dec.exit24

lean_dec.exit24:                                  ; preds = %60, %59, %57, %51
  %61 = ptrtoint ptr %0 to i64
  %62 = and i64 %61, 1
  %.not39 = icmp eq i64 %62, 0
  br i1 %.not39, label %63, label %lean_dec.exit

63:                                               ; preds = %lean_dec.exit24
  %64 = load i32, ptr %0, align 4, !tbaa !4
  %65 = icmp sgt i32 %64, 1
  br i1 %65, label %66, label %68, !prof !11

66:                                               ; preds = %63
  %67 = add nsw i32 %64, -1
  store i32 %67, ptr %0, align 4, !tbaa !4
  br label %lean_dec.exit

68:                                               ; preds = %63
  %.not.i34 = icmp eq i32 %64, 0
  br i1 %.not.i34, label %lean_dec.exit, label %69

69:                                               ; preds = %68
  tail call void @lean_dec_ref_cold(ptr noundef nonnull %0) #6
  br label %lean_dec.exit

lean_dec.exit:                                    ; preds = %69, %68, %66, %lean_dec.exit24
  %70 = load ptr, ptr @l___private_Lean_Elab_Declaration_0__Lean_Elab_Command_setDeclIdName___closed__7, align 8, !tbaa !9
  %71 = tail call ptr @l_panic___at_Lean_Parser_SyntaxStack_back___spec__1(ptr noundef %70) #6
  br label %lean_dec.exit25

lean_dec.exit25:                                  ; preds = %41, %47, %49, %50, %39, %lean_dec.exit
  %.1 = phi ptr [ %71, %lean_dec.exit ], [ %40, %39 ], [ %36, %50 ], [ %36, %49 ], [ %36, %47 ], [ %36, %41 ]
  ret ptr %.1
}